target datalayout = "e-m:e-p270:32:32-p271:32:32-p272:64:64-i64:64-i128:128-f80:128-n8:16:32:64-S128"
target triple = "x86_64-pc-linux-gnu"

%struct.JsonSemAction = type { ptr, ptr, ptr, ptr, ptr, ptr, ptr, ptr, ptr, ptr }
%struct.JsonLexContext = type { ptr, i64, i32, ptr, ptr, ptr, i8, i32, i32, i32, i32, ptr, ptr, ptr, i8, ptr, ptr }

; Function Attrs: inlinehint nounwind uwtable
define internal i32 @lex_peek(ptr noundef %0) #0 {
  %2 = alloca ptr, align 8
  store ptr %0, ptr %2, align 8
  %3 = load ptr, ptr %2, align 8
  %4 = getelementptr inbounds nuw %struct.JsonLexContext, ptr %3, i32 0, i32 7
  %5 = load i32, ptr %4, align 4
  ret i32 %5
}

; Function Attrs: nounwind uwtable
define internal i32 @parse_array_element(ptr noundef %0, ptr noundef %1) #1 {
  %3 = alloca i32, align 4
  %4 = alloca ptr, align 8
  %5 = alloca ptr, align 8
  %6 = alloca ptr, align 8
  %7 = alloca ptr, align 8
  %8 = alloca i32, align 4
  %9 = alloca i32, align 4
  %10 = alloca i8, align 1
  %11 = alloca i32, align 4
  store ptr %0, ptr %4, align 8
  store ptr %1, ptr %5, align 8
  call void @llvm.lifetime.start.p0(i64 8, ptr %6) #15
  %12 = load ptr, ptr %5, align 8
  %13 = getelementptr inbounds nuw %struct.JsonSemAction, ptr %12, i32 0, i32 7
  %14 = load ptr, ptr %13, align 8
  store ptr %14, ptr %6, align 8
  call void @llvm.lifetime.start.p0(i64 8, ptr %7) #15
  %15 = load ptr, ptr %5, align 8
  %16 = getelementptr inbounds nuw %struct.JsonSemAction, ptr %15, i32 0, i32 8
  %17 = load ptr, ptr %16, align 8
  store ptr %17, ptr %7, align 8
  call void @llvm.lifetime.start.p0(i64 4, ptr %8) #15
  %18 = load ptr, ptr %4, align 8
  %19 = call i32 @lex_peek(ptr noundef %18)
  store i32 %19, ptr %8, align 4
  call void @llvm.lifetime.start.p0(i64 4, ptr %9) #15
  call void @llvm.lifetime.start.p0(i64 1, ptr %10) #15
  %20 = load i32, ptr %8, align 4
  %21 = icmp eq i32 %20, 11
  %22 = zext i1 %21 to i8
  store i8 %22, ptr %10, align 1
  %23 = load ptr, ptr %6, align 8
  %24 = icmp ne ptr %23, null
  br i1 %24, label %25, label %38

25:                                               ; preds = %2
  %26 = load ptr, ptr %6, align 8
  %27 = load ptr, ptr %5, align 8
  %28 = getelementptr inbounds nuw %struct.JsonSemAction, ptr %27, i32 0, i32 0
  %29 = load ptr, ptr %28, align 8
  %30 = load i8, ptr %10, align 1, !range !3, !noundef !4
  %31 = trunc i8 %30 to i1
  %32 = call i32 %26(ptr noundef %29, i1 noundef zeroext %31)
  store i32 %32, ptr %9, align 4
  %33 = load i32, ptr %9, align 4
  %34 = icmp ne i32 %33, 0
  br i1 %34, label %35, label %37

35:                                               ; preds = %25
  %36 = load i32, ptr %9, align 4
  store i32 %36, ptr %3, align 4
  store i32 1, ptr %11, align 4
  br label %74

37:                                               ; preds = %25
  br label %38

38:                                               ; preds = %37, %2
  %39 = load i32, ptr %8, align 4
  switch i32 %39, label %48 [
    i32 3, label %40
    i32 5, label %44
  ]

40:                                               ; preds = %38
  %41 = load ptr, ptr %4, align 8
  %42 = load ptr, ptr %5, align 8
  %43 = call i32 @parse_object(ptr noundef %41, ptr noundef %42)
  store i32 %43, ptr %9, align 4
  br label %52

44:                                               ; preds = %38
  %45 = load ptr, ptr %4, align 8
  %46 = load ptr, ptr %5, align 8
  %47 = call i32 @parse_array(ptr noundef %45, ptr noundef %46)
  store i32 %47, ptr %9, align 4
  br label %52

48:                                               ; preds = %38
  %49 = load ptr, ptr %4, align 8
  %50 = load ptr, ptr %5, align 8
  %51 = call i32 @parse_scalar(ptr noundef %49, ptr noundef %50)
  store i32 %51, ptr %9, align 4
  br label %52

52:                                               ; preds = %48, %44, %40
  %53 = load i32, ptr %9, align 4
  %54 = icmp ne i32 %53, 0
  br i1 %54, label %55, label %57

55:                                               ; preds = %52
  %56 = load i32, ptr %9, align 4
  store i32 %56, ptr %3, align 4
  store i32 1, ptr %11, align 4
  br label %74

57:                                               ; preds = %52
  %58 = load ptr, ptr %7, align 8
  %59 = icmp ne ptr %58, null
  br i1 %59, label %60, label %73

60:                                               ; preds = %57
  %61 = load ptr, ptr %7, align 8
  %62 = load ptr, ptr %5, align 8
  %63 = getelementptr inbounds nuw %struct.JsonSemAction, ptr %62, i32 0, i32 0
  %64 = load ptr, ptr %63, align 8
  %65 = load i8, ptr %10, align 1, !range !3, !noundef !4
  %66 = trunc i8 %65 to i1
  %67 = call i32 %61(ptr noundef %64, i1 noundef zeroext %66)
  store i32 %67, ptr %9, align 4
  %68 = load i32, ptr %9, align 4
  %69 = icmp ne i32 %68, 0
  br i1 %69, label %70, label %72

70:                                               ; preds = %60
  %71 = load i32, ptr %9, align 4
  store i32 %71, ptr %3, align 4
  store i32 1, ptr %11, align 4
  br label %74

72:                                               ; preds = %60
  br label %73

73:                                               ; preds = %72, %57
  store i32 0, ptr %3, align 4
  store i32 1, ptr %11, align 4
  br label %74

74:                                               ; preds = %73, %70, %55, %35
  call void @llvm.lifetime.end.p0(i64 1, ptr %10) #15
  call void @llvm.lifetime.end.p0(i64 4, ptr %9) #15
  call void @llvm.lifetime.end.p0(i64 4, ptr %8) #15
  call void @llvm.lifetime.end.p0(i64 8, ptr %7) #15
  call void @llvm.lifetime.end.p0(i64 8, ptr %6) #15
  %75 = load i32, ptr %3, align 4
  ret i32 %75
}