; Function Attrs: nounwind uwtable
define internal fastcc i32 @parse_array_element(ptr noundef captures(address) %0, ptr noundef readonly captures(none) %1) unnamed_addr #1 {
  %3 = getelementptr inbounds nuw i8, ptr %1, i64 56
  %4 = load ptr, ptr %3, align 8
  %5 = getelementptr inbounds nuw i8, ptr %1, i64 64
  %6 = load ptr, ptr %5, align 8
  %7 = getelementptr i8, ptr %0, i64 52
  %.val = load i32, ptr %7, align 4
  %8 = icmp eq i32 %.val, 11
  %.not = icmp eq ptr %4, null
  br i1 %.not, label %12, label %9

9:                                                ; preds = %2
  %10 = load ptr, ptr %1, align 8
  %11 = tail call i32 %4(ptr noundef %10, i1 noundef zeroext %8) #16
  %.not30 = icmp eq i32 %11, 0
  br i1 %.not30, label %12, label %25

12:                                               ; preds = %9, %2
  switch i32 %.val, label %17 [
    i32 3, label %13
    i32 5, label %15
  ]

13:                                               ; preds = %12
  %14 = tail call fastcc i32 @parse_object(ptr noundef nonnull %0, ptr noundef nonnull %1)
  br label %19

15:                                               ; preds = %12
  %16 = tail call fastcc i32 @parse_array(ptr noundef nonnull %0, ptr noundef nonnull %1)
  br label %19

17:                                               ; preds = %12
  %18 = tail call fastcc i32 @parse_scalar(ptr noundef nonnull %0, ptr noundef nonnull %1)
  br label %19

19:                                               ; preds = %17, %15, %13
  %.025 = phi i32 [ %18, %17 ], [ %16, %15 ], [ %14, %13 ]
  %.not31 = icmp eq i32 %.025, 0
  br i1 %.not31, label %20, label %25

20:                                               ; preds = %19
  %.not32 = icmp eq ptr %6, null
  br i1 %.not32, label %24, label %21

21:                                               ; preds = %20
  %22 = load ptr, ptr %1, align 8
  %23 = tail call i32 %6(ptr noundef %22, i1 noundef zeroext %8) #16
  %.not33 = icmp eq i32 %23, 0
  br i1 %.not33, label %24, label %25

24:                                               ; preds = %21, %20
  br label %25

25:                                               ; preds = %21, %19, %9, %24
  %.0 = phi i32 [ 0, %24 ], [ %11, %9 ], [ %.025, %19 ], [ %23, %21 ]
  ret i32 %.0
}